; Function Attrs: mustprogress uwtable
define hidden noundef ptr @_Z6concatP15proof_converterS0_(ptr noundef %0, ptr noundef %1) local_unnamed_addr #3 personality ptr @__gxx_personality_v0 {
  %3 = icmp eq ptr %0, null
  br i1 %3, label %16, label %4

4:                                                ; preds = %2
  %5 = icmp eq ptr %1, null
  br i1 %5, label %16, label %_ZN22concat_proof_converterC2EP15proof_converterS1_.exit

_ZN22concat_proof_converterC2EP15proof_converterS1_.exit: ; preds = %4
  %6 = tail call noalias noundef ptr @_ZN6memory8allocateEm(i64 noundef 32)
  %7 = getelementptr inbounds nuw i8, ptr %6, i64 8
  store i32 0, ptr %7, align 8, !tbaa !3
  %8 = getelementptr inbounds nuw i8, ptr %6, i64 16
  store ptr %0, ptr %8, align 8, !tbaa !8
  %9 = getelementptr inbounds nuw i8, ptr %0, i64 8
  %10 = load i32, ptr %9, align 8, !tbaa !3
  %11 = add i32 %10, 1
  store i32 %11, ptr %9, align 8, !tbaa !3
  %12 = getelementptr inbounds nuw i8, ptr %6, i64 24
  store ptr %1, ptr %12, align 8, !tbaa !8
  %13 = getelementptr inbounds nuw i8, ptr %1, i64 8
  %14 = load i32, ptr %13, align 8, !tbaa !3
  %15 = add i32 %14, 1
  store i32 %15, ptr %13, align 8, !tbaa !3
  store ptr getelementptr inbounds nuw inrange(-16, 56) (i8, ptr @_ZTV22concat_proof_converter, i64 16), ptr %6, align 8, !tbaa !12
  br label %16

16:                                               ; preds = %4, %2, %_ZN22concat_proof_converterC2EP15proof_converterS1_.exit
  %.0 = phi ptr [ %6, %_ZN22concat_proof_converterC2EP15proof_converterS1_.exit ], [ %1, %2 ], [ %0, %4 ]
  ret ptr %.0
}